target datalayout = "e-m:e-p270:32:32-p271:32:32-p272:64:64-i64:64-i128:128-f80:128-n8:16:32:64-S128"
target triple = "x86_64-pc-linux-gnu"

%struct.btLCP = type { i32, i32, i32, i32, i32, ptr, ptr, ptr, ptr, ptr, ptr, ptr, ptr, ptr, ptr, ptr, ptr, ptr, ptr, ptr }

; Function Attrs: mustprogress nounwind uwtable
define dso_local void @_ZN5btLCP17pN_plusequals_ANiEPfii(ptr noundef nonnull align 8 dereferenceable(144) %0, ptr noundef %1, i32 noundef %2, i32 noundef %3) #1 align 2 {
  %5 = alloca ptr, align 8
  %6 = alloca ptr, align 8
  %7 = alloca i32, align 4
  %8 = alloca i32, align 4
  %9 = alloca i32, align 4
  %10 = alloca ptr, align 8
  %11 = alloca ptr, align 8
  %12 = alloca i32, align 4
  %13 = alloca i32, align 4
  %14 = alloca i32, align 4
  %15 = alloca i32, align 4
  store ptr %0, ptr %5, align 8, !tbaa !41
  store ptr %1, ptr %6, align 8, !tbaa !12
  store i32 %2, ptr %7, align 4, !tbaa !9
  store i32 %3, ptr %8, align 4, !tbaa !9
  %16 = load ptr, ptr %5, align 8
  call void @llvm.lifetime.start.p0(i64 4, ptr %9) #9
  %17 = getelementptr inbounds nuw %struct.btLCP, ptr %16, i32 0, i32 3
  %18 = load i32, ptr %17, align 4, !tbaa !53
  store i32 %18, ptr %9, align 4, !tbaa !9
  call void @llvm.lifetime.start.p0(i64 8, ptr %10) #9
  %19 = getelementptr inbounds nuw %struct.btLCP, ptr %16, i32 0, i32 5
  %20 = load ptr, ptr %19, align 8, !tbaa !55
  %21 = load i32, ptr %7, align 4, !tbaa !9
  %22 = sext i32 %21 to i64
  %23 = getelementptr inbounds ptr, ptr %20, i64 %22
  %24 = load ptr, ptr %23, align 8, !tbaa !12
  %25 = load i32, ptr %9, align 4, !tbaa !9
  %26 = sext i32 %25 to i64
  %27 = getelementptr inbounds float, ptr %24, i64 %26
  store ptr %27, ptr %10, align 8, !tbaa !12
  call void @llvm.lifetime.start.p0(i64 8, ptr %11) #9
  %28 = load ptr, ptr %6, align 8, !tbaa !12
  %29 = load i32, ptr %9, align 4, !tbaa !9
  %30 = sext i32 %29 to i64
  %31 = getelementptr inbounds float, ptr %28, i64 %30
  store ptr %31, ptr %11, align 8, !tbaa !12
  %32 = load i32, ptr %8, align 4, !tbaa !9
  %33 = icmp sgt i32 %32, 0
  br i1 %33, label %34, label %58

34:                                               ; preds = %4
  call void @llvm.lifetime.start.p0(i64 4, ptr %12) #9
  %35 = getelementptr inbounds nuw %struct.btLCP, ptr %16, i32 0, i32 4
  %36 = load i32, ptr %35, align 8, !tbaa !54
  store i32 %36, ptr %12, align 4, !tbaa !9
  call void @llvm.lifetime.start.p0(i64 4, ptr %13) #9
  store i32 0, ptr %13, align 4, !tbaa !9
  br label %37

37:                                               ; preds = %54, %34
  %38 = load i32, ptr %13, align 4, !tbaa !9
  %39 = load i32, ptr %12, align 4, !tbaa !9
  %40 = icmp slt i32 %38, %39
  br i1 %40, label %42, label %41

41:                                               ; preds = %37
  call void @llvm.lifetime.end.p0(i64 4, ptr %13) #9
  br label %57

42:                                               ; preds = %37
  %43 = load ptr, ptr %10, align 8, !tbaa !12
  %44 = load i32, ptr %13, align 4, !tbaa !9
  %45 = sext i32 %44 to i64
  %46 = getelementptr inbounds float, ptr %43, i64 %45
  %47 = load float, ptr %46, align 4, !tbaa !14
  %48 = load ptr, ptr %11, align 8, !tbaa !12
  %49 = load i32, ptr %13, align 4, !tbaa !9
  %50 = sext i32 %49 to i64
  %51 = getelementptr inbounds float, ptr %48, i64 %50
  %52 = load float, ptr %51, align 4, !tbaa !14
  %53 = fadd float %52, %47
  store float %53, ptr %51, align 4, !tbaa !14
  br label %54

54:                                               ; preds = %42
  %55 = load i32, ptr %13, align 4, !tbaa !9
  %56 = add nsw i32 %55, 1
  store i32 %56, ptr %13, align 4, !tbaa !9
  br label %37, !llvm.loop !110

57:                                               ; preds = %41
  call void @llvm.lifetime.end.p0(i64 4, ptr %12) #9
  br label %82

58:                                               ; preds = %4
  call void @llvm.lifetime.start.p0(i64 4, ptr %14) #9
  %59 = getelementptr inbounds nuw %struct.btLCP, ptr %16, i32 0, i32 4
  %60 = load i32, ptr %59, align 8, !tbaa !54
  store i32 %60, ptr %14, align 4, !tbaa !9
  call void @llvm.lifetime.start.p0(i64 4, ptr %15) #9
  store i32 0, ptr %15, align 4, !tbaa !9
  br label %61

61:                                               ; preds = %78, %58
  %62 = load i32, ptr %15, align 4, !tbaa !9
  %63 = load i32, ptr %14, align 4, !tbaa !9
  %64 = icmp slt i32 %62, %63
  br i1 %64, label %66, label %65

65:                                               ; preds = %61
  call void @llvm.lifetime.end.p0(i64 4, ptr %15) #9
  br label %81

66:                                               ; preds = %61
  %67 = load ptr, ptr %10, align 8, !tbaa !12
  %68 = load i32, ptr %15, align 4, !tbaa !9
  %69 = sext i32 %68 to i64
  %70 = getelementptr inbounds float, ptr %67, i64 %69
  %71 = load float, ptr %70, align 4, !tbaa !14
  %72 = load ptr, ptr %11, align 8, !tbaa !12
  %73 = load i32, ptr %15, align 4, !tbaa !9
  %74 = sext i32 %73 to i64
  %75 = getelementptr inbounds float, ptr %72, i64 %74
  %76 = load float, ptr %75, align 4, !tbaa !14
  %77 = fsub float %76, %71
  store float %77, ptr %75, align 4, !tbaa !14
  br label %78

78:                                               ; preds = %66
  %79 = load i32, ptr %15, align 4, !tbaa !9
  %80 = add nsw i32 %79, 1
  store i32 %80, ptr %15, align 4, !tbaa !9
  br label %61, !llvm.loop !111

81:                                               ; preds = %65
  call void @llvm.lifetime.end.p0(i64 4, ptr %14) #9
  br label %82

82:                                               ; preds = %81, %57
  call void @llvm.lifetime.end.p0(i64 8, ptr %11) #9
  call void @llvm.lifetime.end.p0(i64 8, ptr %10) #9
  call void @llvm.lifetime.end.p0(i64 4, ptr %9) #9
  ret void
}