; Function Attrs: mustprogress nofree norecurse nosync nounwind memory(read, argmem: readwrite, inaccessiblemem: none) uwtable
define dso_local void @_ZN5btLCP17pN_plusequals_ANiEPfii(ptr noundef nonnull readonly align 8 captures(none) dereferenceable(144) %0, ptr noundef captures(none) %1, i32 noundef %2, i32 noundef %3) local_unnamed_addr #6 align 2 {
  %5 = getelementptr inbounds nuw i8, ptr %0, i64 12
  %6 = load i32, ptr %5, align 4, !tbaa !41
  %7 = getelementptr inbounds nuw i8, ptr %0, i64 24
  %8 = load ptr, ptr %7, align 8, !tbaa !43
  %9 = sext i32 %2 to i64
  %10 = getelementptr inbounds ptr, ptr %8, i64 %9
  %11 = load ptr, ptr %10, align 8, !tbaa !58
  %12 = sext i32 %6 to i64
  %13 = getelementptr inbounds float, ptr %11, i64 %12
  %14 = getelementptr inbounds float, ptr %1, i64 %12
  %15 = icmp sgt i32 %3, 0
  %16 = getelementptr inbounds nuw i8, ptr %0, i64 16
  %17 = load i32, ptr %16, align 8, !tbaa !42
  %18 = icmp sgt i32 %17, 0
  br i1 %15, label %19, label %25

19:                                               ; preds = %4
  br i1 %18, label %.lr.ph23.preheader, label %.loopexit

.lr.ph23.preheader:                               ; preds = %19
  %wide.trip.count29 = zext nneg i32 %17 to i64
  br label %.lr.ph23

.lr.ph23:                                         ; preds = %.lr.ph23.preheader, %.lr.ph23
  %indvars.iv26 = phi i64 [ 0, %.lr.ph23.preheader ], [ %indvars.iv.next27, %.lr.ph23 ]
  %20 = getelementptr inbounds nuw float, ptr %13, i64 %indvars.iv26
  %21 = load float, ptr %20, align 4, !tbaa !4
  %22 = getelementptr inbounds nuw float, ptr %14, i64 %indvars.iv26
  %23 = load float, ptr %22, align 4, !tbaa !4
  %24 = fadd float %21, %23
  store float %24, ptr %22, align 4, !tbaa !4
  %indvars.iv.next27 = add nuw nsw i64 %indvars.iv26, 1
  %exitcond30.not = icmp eq i64 %indvars.iv.next27, %wide.trip.count29
  br i1 %exitcond30.not, label %.loopexit, label %.lr.ph23, !llvm.loop !98

25:                                               ; preds = %4
  br i1 %18, label %.lr.ph.preheader, label %.loopexit

.lr.ph.preheader:                                 ; preds = %25
  %wide.trip.count = zext nneg i32 %17 to i64
  br label %.lr.ph

.lr.ph:                                           ; preds = %.lr.ph.preheader, %.lr.ph
  %indvars.iv = phi i64 [ 0, %.lr.ph.preheader ], [ %indvars.iv.next, %.lr.ph ]
  %26 = getelementptr inbounds nuw float, ptr %13, i64 %indvars.iv
  %27 = load float, ptr %26, align 4, !tbaa !4
  %28 = getelementptr inbounds nuw float, ptr %14, i64 %indvars.iv
  %29 = load float, ptr %28, align 4, !tbaa !4
  %30 = fsub float %29, %27
  store float %30, ptr %28, align 4, !tbaa !4
  %indvars.iv.next = add nuw nsw i64 %indvars.iv, 1
  %exitcond.not = icmp eq i64 %indvars.iv.next, %wide.trip.count
  br i1 %exitcond.not, label %.loopexit, label %.lr.ph, !llvm.loop !99

.loopexit:                                        ; preds = %.lr.ph, %.lr.ph23, %25, %19
  ret void
}